; Function Attrs: mustprogress nofree norecurse nosync nounwind memory(readwrite, inaccessiblemem: none) uwtable
define void @_ZN7Minisat10SimpSolver11extendModelEv(ptr nocapture noundef nonnull readonly align 8 dereferenceable(1196) %0) local_unnamed_addr #7 align 2 {
  %2 = getelementptr inbounds i8, ptr %0, i64 912
  %3 = getelementptr inbounds i8, ptr %0, i64 920
  %4 = load i32, ptr %3, align 8
  %5 = icmp sgt i32 %4, 1
  br i1 %5, label %.lr.ph27, label %._crit_edge28

.lr.ph27:                                         ; preds = %1
  %6 = add nsw i32 %4, -1
  %7 = getelementptr inbounds i8, ptr %0, i64 8
  %.sroa.03.0.copyload.b = load i1, ptr @_ZN7MinisatL7l_FalseE.0, align 1
  %.sroa.03.0.copyload = zext i1 %.sroa.03.0.copyload.b to i8
  br label %8

8:                                                ; preds = %.lr.ph27, %.loopexit
  %.025 = phi i32 [ %6, %.lr.ph27 ], [ %38, %.loopexit ]
  %9 = load ptr, ptr %2, align 8
  %10 = zext nneg i32 %.025 to i64
  %11 = getelementptr inbounds i32, ptr %9, i64 %10
  %12 = load i32, ptr %11, align 4
  %.121 = add nsw i32 %.025, -1
  %13 = icmp sgt i32 %12, 1
  %.pre = load ptr, ptr %7, align 8
  br i1 %13, label %.lr.ph, label %._crit_edge

.lr.ph:                                           ; preds = %8
  %14 = zext nneg i32 %.121 to i64
  br label %15

15:                                               ; preds = %.lr.ph, %25
  %indvars.iv = phi i64 [ %14, %.lr.ph ], [ %indvars.iv.next, %25 ]
  %.01522 = phi i32 [ %12, %.lr.ph ], [ %26, %25 ]
  %16 = getelementptr inbounds i32, ptr %9, i64 %indvars.iv
  %17 = load i32, ptr %16, align 4
  %18 = ashr i32 %17, 1
  %19 = sext i32 %18 to i64
  %20 = getelementptr inbounds %"class.Minisat::lbool", ptr %.pre, i64 %19
  %21 = load i8, ptr %20, align 1
  %22 = trunc i32 %17 to i8
  %23 = and i8 %22, 1
  %24 = xor i8 %21, %23
  %.not = icmp eq i8 %24, %.sroa.03.0.copyload
  br i1 %.not, label %25, label %.loopexit.loopexit

25:                                               ; preds = %15
  %26 = add nsw i32 %.01522, -1
  %indvars.iv.next = add nsw i64 %indvars.iv, -1
  %27 = icmp sgt i32 %.01522, 2
  br i1 %27, label %15, label %._crit_edge.loopexit, !llvm.loop !12

._crit_edge.loopexit:                             ; preds = %25
  %28 = trunc i64 %indvars.iv.next to i32
  br label %._crit_edge

._crit_edge:                                      ; preds = %._crit_edge.loopexit, %8
  %.015.lcssa = phi i32 [ %12, %8 ], [ 1, %._crit_edge.loopexit ]
  %.1.lcssa = phi i32 [ %.121, %8 ], [ %28, %._crit_edge.loopexit ]
  %29 = sext i32 %.1.lcssa to i64
  %30 = getelementptr inbounds i32, ptr %9, i64 %29
  %31 = load i32, ptr %30, align 4
  %32 = trunc i32 %31 to i8
  %33 = and i8 %32, 1
  %34 = ashr i32 %31, 1
  %35 = sext i32 %34 to i64
  %36 = getelementptr inbounds %"class.Minisat::lbool", ptr %.pre, i64 %35
  store i8 %33, ptr %36, align 1
  br label %.loopexit

.loopexit.loopexit:                               ; preds = %15
  %37 = trunc i64 %indvars.iv to i32
  br label %.loopexit

.loopexit:                                        ; preds = %.loopexit.loopexit, %._crit_edge
  %.01520 = phi i32 [ %.015.lcssa, %._crit_edge ], [ %.01522, %.loopexit.loopexit ]
  %.118 = phi i32 [ %.1.lcssa, %._crit_edge ], [ %37, %.loopexit.loopexit ]
  %38 = sub nsw i32 %.118, %.01520
  %39 = icmp sgt i32 %38, 0
  br i1 %39, label %8, label %._crit_edge28, !llvm.loop !13

._crit_edge28:                                    ; preds = %.loopexit, %1
  ret void
}